target datalayout = "e-m:e-p270:32:32-p271:32:32-p272:64:64-i64:64-i128:128-f80:128-n8:16:32:64-S128"
target triple = "x86_64-pc-linux-gnu"

@.str.1 = private unnamed_addr constant [27 x i8] c"../openssl/apps/lib/apps.c\00", align 1
@.str.28 = private unnamed_addr constant [12 x i8] c"private key\00", align 1

; Function Attrs: nounwind uwtable
define dso_local ptr @load_key(ptr noundef %0, i32 noundef %1, i32 noundef %2, ptr noundef %3, ptr noundef %4, ptr noundef %5) #0 {
  %7 = alloca ptr, align 8
  %8 = alloca i32, align 4
  %9 = alloca i32, align 4
  %10 = alloca ptr, align 8
  %11 = alloca ptr, align 8
  %12 = alloca ptr, align 8
  %13 = alloca ptr, align 8
  %14 = alloca ptr, align 8
  store ptr %0, ptr %7, align 8, !tbaa !9
  store i32 %1, ptr %8, align 4, !tbaa !25
  store i32 %2, ptr %9, align 4, !tbaa !25
  store ptr %3, ptr %10, align 8, !tbaa !9
  store ptr %4, ptr %11, align 8, !tbaa !86
  store ptr %5, ptr %12, align 8, !tbaa !9
  call void @llvm.lifetime.start.p0(i64 8, ptr %13) #12
  store ptr null, ptr %13, align 8, !tbaa !67
  call void @llvm.lifetime.start.p0(i64 8, ptr %14) #12
  store ptr null, ptr %14, align 8, !tbaa !9
  %15 = load ptr, ptr %12, align 8, !tbaa !9
  %16 = icmp eq ptr %15, null
  br i1 %16, label %17, label %18

17:                                               ; preds = %6
  store ptr @.str.28, ptr %12, align 8, !tbaa !9
  br label %18

18:                                               ; preds = %17, %6
  %19 = load i32, ptr %8, align 4, !tbaa !25
  %20 = icmp eq i32 %19, 8
  br i1 %20, label %21, label %26

21:                                               ; preds = %18
  %22 = load ptr, ptr %11, align 8, !tbaa !86
  %23 = load ptr, ptr %7, align 8, !tbaa !9
  %24 = load ptr, ptr %12, align 8, !tbaa !9
  %25 = call ptr @make_engine_uri(ptr noundef %22, ptr noundef %23, ptr noundef %24)
  store ptr %25, ptr %14, align 8, !tbaa !9
  store ptr %25, ptr %7, align 8, !tbaa !9
  br label %26

26:                                               ; preds = %21, %18
  %27 = load ptr, ptr %7, align 8, !tbaa !9
  %28 = load i32, ptr %8, align 4, !tbaa !25
  %29 = load i32, ptr %9, align 4, !tbaa !25
  %30 = load ptr, ptr %10, align 8, !tbaa !9
  %31 = load ptr, ptr %12, align 8, !tbaa !9
  %32 = call i32 @load_key_certs_crls(ptr noundef %27, i32 noundef %28, i32 noundef %29, ptr noundef %30, ptr noundef %31, i32 noundef 0, ptr noundef %13, ptr noundef null, ptr noundef null, ptr noundef null, ptr noundef null, ptr noundef null, ptr noundef null)
  %33 = load ptr, ptr %14, align 8, !tbaa !9
  call void @CRYPTO_free(ptr noundef %33, ptr noundef @.str.1, i32 noundef 619)
  %34 = load ptr, ptr %13, align 8, !tbaa !67
  call void @llvm.lifetime.end.p0(i64 8, ptr %14) #12
  call void @llvm.lifetime.end.p0(i64 8, ptr %13) #12
  ret ptr %34
}