; Function Attrs: nounwind uwtable
define dso_local ptr @load_key(ptr noundef %0, i32 noundef %1, i32 noundef %2, ptr noundef %3, ptr noundef %4, ptr noundef %5) local_unnamed_addr #0 {
  %7 = alloca ptr, align 8
  call void @llvm.lifetime.start.p0(i64 8, ptr nonnull %7) #27
  store ptr null, ptr %7, align 8, !tbaa !37
  %8 = icmp eq ptr %5, null
  %spec.store.select = select i1 %8, ptr @.str.28, ptr %5
  %9 = icmp eq i32 %1, 8
  br i1 %9, label %.split12, label %.split

.split:                                           ; preds = %6
  %10 = call i32 @load_key_certs_crls(ptr noundef %0, i32 noundef %1, i32 noundef %2, ptr noundef %3, ptr noundef nonnull %spec.store.select, i32 noundef 0, ptr noundef nonnull %7, ptr noundef null, ptr noundef null, ptr noundef null, ptr noundef null, ptr noundef null, ptr noundef null)
  br label %13

.split12:                                         ; preds = %6
  %11 = tail call ptr @make_engine_uri(ptr noundef %4, ptr noundef %0, ptr noundef nonnull %spec.store.select) #27
  %12 = call i32 @load_key_certs_crls(ptr noundef %11, i32 noundef 8, i32 noundef %2, ptr noundef %3, ptr noundef nonnull %spec.store.select, i32 noundef 0, ptr noundef nonnull %7, ptr noundef null, ptr noundef null, ptr noundef null, ptr noundef null, ptr noundef null, ptr noundef null)
  br label %13

13:                                               ; preds = %.split, %.split12
  %.0 = phi ptr [ %11, %.split12 ], [ null, %.split ]
  call void @CRYPTO_free(ptr noundef %.0, ptr noundef nonnull @.str.1, i32 noundef 619) #27
  %14 = load ptr, ptr %7, align 8, !tbaa !37
  call void @llvm.lifetime.end.p0(i64 8, ptr nonnull %7) #27
  ret ptr %14
}